target datalayout = "e-m:e-p270:32:32-p271:32:32-p272:64:64-i64:64-i128:128-f80:128-n8:16:32:64-S128"
target triple = "x86_64-pc-linux-gnu"

%"class.OpenSubdiv::v3_6_0::Sdc::Crease" = type { %"class.OpenSubdiv::v3_6_0::Sdc::Options" }
%"class.OpenSubdiv::v3_6_0::Sdc::Options" = type { i8, i8, i8, i8 }

; Function Attrs: mustprogress nounwind uwtable
define linkonce_odr noundef zeroext i1 @_ZN10OpenSubdiv6v3_6_03Sdc6Crease10IsInfiniteEf(float noundef %0) #1 comdat align 2 {
  %2 = alloca float, align 4
  store float %0, ptr %2, align 4
  %3 = load float, ptr %2, align 4
  %4 = fcmp oge float %3, 1.000000e+01
  ret i1 %4
}

; Function Attrs: mustprogress nounwind uwtable
define linkonce_odr noundef zeroext i1 @_ZN10OpenSubdiv6v3_6_03Sdc6Crease8IsSmoothEf(float noundef %0) #1 comdat align 2 {
  %2 = alloca float, align 4
  store float %0, ptr %2, align 4
  %3 = load float, ptr %2, align 4
  %4 = fcmp ole float %3, 0.000000e+00
  ret i1 %4
}

; Function Attrs: mustprogress nounwind uwtable
define linkonce_odr noundef zeroext i1 @_ZN10OpenSubdiv6v3_6_03Sdc6Crease11IsSemiSharpEf(float noundef %0) #1 comdat align 2 {
  %2 = alloca float, align 4
  store float %0, ptr %2, align 4
  %3 = load float, ptr %2, align 4
  %4 = fcmp olt float 0.000000e+00, %3
  br i1 %4, label %5, label %8

5:                                                ; preds = %1
  %6 = load float, ptr %2, align 4
  %7 = fcmp olt float %6, 1.000000e+01
  br label %8

8:                                                ; preds = %5, %1
  %9 = phi i1 [ false, %1 ], [ %7, %5 ]
  ret i1 %9
}

; Function Attrs: mustprogress nounwind uwtable
define linkonce_odr noundef i32 @_ZNK10OpenSubdiv6v3_6_03Sdc7Options17GetCreasingMethodEv(ptr noundef nonnull align 1 dereferenceable(4) %0) #1 comdat align 2 {
  %2 = alloca ptr, align 8
  store ptr %0, ptr %2, align 8
  %3 = load ptr, ptr %2, align 8
  %4 = getelementptr inbounds nuw %"class.OpenSubdiv::v3_6_0::Sdc::Options", ptr %3, i32 0, i32 2
  %5 = load i8, ptr %4, align 1
  %6 = zext i8 %5 to i32
  ret i32 %6
}

; Function Attrs: mustprogress uwtable
define linkonce_odr noundef float @_ZNK10OpenSubdiv6v3_6_03Sdc6Crease18decrementSharpnessEf(ptr noundef nonnull align 1 dereferenceable(4) %0, float noundef %1) #0 comdat align 2 {
  %3 = alloca float, align 4
  %4 = alloca ptr, align 8
  %5 = alloca float, align 4
  store ptr %0, ptr %4, align 8
  store float %1, ptr %5, align 4
  %6 = load float, ptr %5, align 4
  %7 = call noundef zeroext i1 @_ZN10OpenSubdiv6v3_6_03Sdc6Crease8IsSmoothEf(float noundef %6)
  br i1 %7, label %8, label %9

8:                                                ; preds = %2
  store float 0.000000e+00, ptr %3, align 4
  br label %20

9:                                                ; preds = %2
  %10 = load float, ptr %5, align 4
  %11 = call noundef zeroext i1 @_ZN10OpenSubdiv6v3_6_03Sdc6Crease10IsInfiniteEf(float noundef %10)
  br i1 %11, label %12, label %13

12:                                               ; preds = %9
  store float 1.000000e+01, ptr %3, align 4
  br label %20

13:                                               ; preds = %9
  %14 = load float, ptr %5, align 4
  %15 = fcmp ogt float %14, 1.000000e+00
  br i1 %15, label %16, label %19

16:                                               ; preds = %13
  %17 = load float, ptr %5, align 4
  %18 = fsub float %17, 1.000000e+00
  store float %18, ptr %3, align 4
  br label %20

19:                                               ; preds = %13
  store float 0.000000e+00, ptr %3, align 4
  br label %20

20:                                               ; preds = %19, %16, %12, %8
  %21 = load float, ptr %3, align 4
  ret float %21
}

; Function Attrs: mustprogress uwtable
define linkonce_odr noundef zeroext i1 @_ZNK10OpenSubdiv6v3_6_03Sdc6Crease9IsUniformEv(ptr noundef nonnull align 1 dereferenceable(4) %0) #0 comdat align 2 {
  %2 = alloca ptr, align 8
  store ptr %0, ptr %2, align 8
  %3 = load ptr, ptr %2, align 8
  %4 = getelementptr inbounds nuw %"class.OpenSubdiv::v3_6_0::Sdc::Crease", ptr %3, i32 0, i32 0
  %5 = call noundef i32 @_ZNK10OpenSubdiv6v3_6_03Sdc7Options17GetCreasingMethodEv(ptr noundef nonnull align 1 dereferenceable(4) %4)
  %6 = icmp eq i32 %5, 0
  ret i1 %6
}

; Function Attrs: mustprogress uwtable
define void @_ZNK10OpenSubdiv6v3_6_03Sdc6Crease36SubdivideEdgeSharpnessesAroundVertexEiPKfPf(ptr noundef nonnull align 1 dereferenceable(4) %0, i32 noundef %1, ptr noundef %2, ptr noundef %3) #0 align 2 {
  %5 = alloca ptr, align 8
  %6 = alloca i32, align 4
  %7 = alloca ptr, align 8
  %8 = alloca ptr, align 8
  %9 = alloca i32, align 4
  %10 = alloca float, align 4
  %11 = alloca i32, align 4
  %12 = alloca i32, align 4
  %13 = alloca i32, align 4
  %14 = alloca i32, align 4
  %15 = alloca ptr, align 8
  %16 = alloca ptr, align 8
  %17 = alloca float, align 4
  store ptr %0, ptr %5, align 8
  store i32 %1, ptr %6, align 4
  store ptr %2, ptr %7, align 8
  store ptr %3, ptr %8, align 8
  %18 = load ptr, ptr %5, align 8
  %19 = call noundef zeroext i1 @_ZNK10OpenSubdiv6v3_6_03Sdc6Crease9IsUniformEv(ptr noundef nonnull align 1 dereferenceable(4) %18)
  br i1 %19, label %23, label %20

20:                                               ; preds = %4
  %21 = load i32, ptr %6, align 4
  %22 = icmp slt i32 %21, 2
  br i1 %22, label %23, label %43

23:                                               ; preds = %20, %4
  store i32 0, ptr %9, align 4
  br label %24

24:                                               ; preds = %39, %23
  %25 = load i32, ptr %9, align 4
  %26 = load i32, ptr %6, align 4
  %27 = icmp slt i32 %25, %26
  br i1 %27, label %28, label %42

28:                                               ; preds = %24
  %29 = load ptr, ptr %7, align 8
  %30 = load i32, ptr %9, align 4
  %31 = sext i32 %30 to i64
  %32 = getelementptr inbounds float, ptr %29, i64 %31
  %33 = load float, ptr %32, align 4
  %34 = call noundef float @_ZNK10OpenSubdiv6v3_6_03Sdc6Crease18decrementSharpnessEf(ptr noundef nonnull align 1 dereferenceable(4) %18, float noundef %33)
  %35 = load ptr, ptr %8, align 8
  %36 = load i32, ptr %9, align 4
  %37 = sext i32 %36 to i64
  %38 = getelementptr inbounds float, ptr %35, i64 %37
  store float %34, ptr %38, align 4
  br label %39

39:                                               ; preds = %28
  %40 = load i32, ptr %9, align 4
  %41 = add nsw i32 %40, 1
  store i32 %41, ptr %9, align 4
  br label %24, !llvm.loop !10

42:                                               ; preds = %24
  br label %158

43:                                               ; preds = %20
  %44 = getelementptr inbounds nuw %"class.OpenSubdiv::v3_6_0::Sdc::Crease", ptr %18, i32 0, i32 0
  %45 = call noundef i32 @_ZNK10OpenSubdiv6v3_6_03Sdc7Options17GetCreasingMethodEv(ptr noundef nonnull align 1 dereferenceable(4) %44)
  %46 = icmp eq i32 %45, 1
  br i1 %46, label %47, label %158

47:                                               ; preds = %43
  store float 0.000000e+00, ptr %10, align 4
  store i32 0, ptr %11, align 4
  store i32 0, ptr %12, align 4
  br label %48

48:                                               ; preds = %70, %47
  %49 = load i32, ptr %12, align 4
  %50 = load i32, ptr %6, align 4
  %51 = icmp slt i32 %49, %50
  br i1 %51, label %52, label %73

52:                                               ; preds = %48
  %53 = load ptr, ptr %7, align 8
  %54 = load i32, ptr %12, align 4
  %55 = sext i32 %54 to i64
  %56 = getelementptr inbounds float, ptr %53, i64 %55
  %57 = load float, ptr %56, align 4
  %58 = call noundef zeroext i1 @_ZN10OpenSubdiv6v3_6_03Sdc6Crease11IsSemiSharpEf(float noundef %57)
  br i1 %58, label %59, label %69

59:                                               ; preds = %52
  %60 = load i32, ptr %11, align 4
  %61 = add nsw i32 %60, 1
  store i32 %61, ptr %11, align 4
  %62 = load ptr, ptr %7, align 8
  %63 = load i32, ptr %12, align 4
  %64 = sext i32 %63 to i64
  %65 = getelementptr inbounds float, ptr %62, i64 %64
  %66 = load float, ptr %65, align 4
  %67 = load float, ptr %10, align 4
  %68 = fadd float %67, %66
  store float %68, ptr %10, align 4
  br label %69

69:                                               ; preds = %59, %52
  br label %70

70:                                               ; preds = %69
  %71 = load i32, ptr %12, align 4
  %72 = add nsw i32 %71, 1
  store i32 %72, ptr %12, align 4
  br label %48, !llvm.loop !11

73:                                               ; preds = %48
  %74 = load i32, ptr %11, align 4
  %75 = icmp eq i32 %74, 0
  br i1 %75, label %76, label %95

76:                                               ; preds = %73
  store i32 0, ptr %13, align 4
  br label %77

77:                                               ; preds = %91, %76
  %78 = load i32, ptr %13, align 4
  %79 = load i32, ptr %6, align 4
  %80 = icmp slt i32 %78, %79
  br i1 %80, label %81, label %94

81:                                               ; preds = %77
  %82 = load ptr, ptr %7, align 8
  %83 = load i32, ptr %13, align 4
  %84 = sext i32 %83 to i64
  %85 = getelementptr inbounds float, ptr %82, i64 %84
  %86 = load float, ptr %85, align 4
  %87 = load ptr, ptr %8, align 8
  %88 = load i32, ptr %13, align 4
  %89 = sext i32 %88 to i64
  %90 = getelementptr inbounds float, ptr %87, i64 %89
  store float %86, ptr %90, align 4
  br label %91

91:                                               ; preds = %81
  %92 = load i32, ptr %13, align 4
  %93 = add nsw i32 %92, 1
  store i32 %93, ptr %13, align 4
  br label %77, !llvm.loop !12

94:                                               ; preds = %77
  br label %157

95:                                               ; preds = %73
  store i32 0, ptr %14, align 4
  br label %96

96:                                               ; preds = %153, %95
  %97 = load i32, ptr %14, align 4
  %98 = load i32, ptr %6, align 4
  %99 = icmp slt i32 %97, %98
  br i1 %99, label %100, label %156

100:                                              ; preds = %96
  %101 = load ptr, ptr %7, align 8
  %102 = load i32, ptr %14, align 4
  %103 = sext i32 %102 to i64
  %104 = getelementptr inbounds float, ptr %101, i64 %103
  store ptr %104, ptr %15, align 8
  %105 = load ptr, ptr %8, align 8
  %106 = load i32, ptr %14, align 4
  %107 = sext i32 %106 to i64
  %108 = getelementptr inbounds float, ptr %105, i64 %107
  store ptr %108, ptr %16, align 8
  %109 = load ptr, ptr %15, align 8
  %110 = load float, ptr %109, align 4
  %111 = call noundef zeroext i1 @_ZN10OpenSubdiv6v3_6_03Sdc6Crease8IsSmoothEf(float noundef %110)
  br i1 %111, label %112, label %114

112:                                              ; preds = %100
  %113 = load ptr, ptr %16, align 8
  store float 0.000000e+00, ptr %113, align 4
  br label %152

114:                                              ; preds = %100
  %115 = load ptr, ptr %15, align 8
  %116 = load float, ptr %115, align 4
  %117 = call noundef zeroext i1 @_ZN10OpenSubdiv6v3_6_03Sdc6Crease10IsInfiniteEf(float noundef %116)
  br i1 %117, label %118, label %120

118:                                              ; preds = %114
  %119 = load ptr, ptr %16, align 8
  store float 1.000000e+01, ptr %119, align 4
  br label %151

120:                                              ; preds = %114
  %121 = load i32, ptr %11, align 4
  %122 = icmp eq i32 %121, 1
  br i1 %122, label %123, label %128

123:                                              ; preds = %120
  %124 = load ptr, ptr %15, align 8
  %125 = load float, ptr %124, align 4
  %126 = call noundef float @_ZNK10OpenSubdiv6v3_6_03Sdc6Crease18decrementSharpnessEf(ptr noundef nonnull align 1 dereferenceable(4) %18, float noundef %125)
  %127 = load ptr, ptr %16, align 8
  store float %126, ptr %127, align 4
  br label %150

128:                                              ; preds = %120
  %129 = load float, ptr %10, align 4
  %130 = load ptr, ptr %15, align 8
  %131 = load float, ptr %130, align 4
  %132 = fsub float %129, %131
  %133 = load i32, ptr %11, align 4
  %134 = sub nsw i32 %133, 1
  %135 = sitofp i32 %134 to float
  %136 = fdiv float %132, %135
  store float %136, ptr %17, align 4
  %137 = load ptr, ptr %15, align 8
  %138 = load float, ptr %137, align 4
  %139 = load float, ptr %17, align 4
  %140 = fmul float 2.500000e-01, %139
  %141 = call float @llvm.fmuladd.f32(float 7.500000e-01, float %138, float %140)
  %142 = fsub float %141, 1.000000e+00
  %143 = load ptr, ptr %16, align 8
  store float %142, ptr %143, align 4
  %144 = load ptr, ptr %16, align 8
  %145 = load float, ptr %144, align 4
  %146 = call noundef zeroext i1 @_ZN10OpenSubdiv6v3_6_03Sdc6Crease8IsSmoothEf(float noundef %145)
  br i1 %146, label %147, label %149

147:                                              ; preds = %128
  %148 = load ptr, ptr %16, align 8
  store float 0.000000e+00, ptr %148, align 4
  br label %149

149:                                              ; preds = %147, %128
  br label %150

150:                                              ; preds = %149, %123
  br label %151

151:                                              ; preds = %150, %118
  br label %152

152:                                              ; preds = %151, %112
  br label %153

153:                                              ; preds = %152
  %154 = load i32, ptr %14, align 4
  %155 = add nsw i32 %154, 1
  store i32 %155, ptr %14, align 4
  br label %96, !llvm.loop !13

156:                                              ; preds = %96
  br label %157

157:                                              ; preds = %156, %94
  br label %158

158:                                              ; preds = %157, %43, %42
  ret void
}