; Function Attrs: mustprogress nofree norecurse nosync nounwind memory(argmem: readwrite) uwtable
define void @_ZNK10OpenSubdiv6v3_6_03Sdc6Crease36SubdivideEdgeSharpnessesAroundVertexEiPKfPf(ptr nocapture noundef nonnull readonly align 1 dereferenceable(4) %0, i32 noundef %1, ptr nocapture noundef readonly %2, ptr nocapture noundef writeonly %3) local_unnamed_addr #3 align 2 {
  %5 = getelementptr inbounds nuw i8, ptr %0, i64 2
  %6 = load i8, ptr %5, align 1
  %7 = icmp eq i8 %6, 0
  %8 = icmp slt i32 %1, 2
  %or.cond = or i1 %8, %7
  br i1 %or.cond, label %.preheader, label %20

.preheader:                                       ; preds = %4
  %9 = icmp sgt i32 %1, 0
  br i1 %9, label %.lr.ph71.preheader, label %.loopexit

.lr.ph71.preheader:                               ; preds = %.preheader
  %wide.trip.count94 = zext nneg i32 %1 to i64
  br label %.lr.ph71

.lr.ph71:                                         ; preds = %.lr.ph71.preheader, %_ZNK10OpenSubdiv6v3_6_03Sdc6Crease18decrementSharpnessEf.exit
  %indvars.iv91 = phi i64 [ 0, %.lr.ph71.preheader ], [ %indvars.iv.next92, %_ZNK10OpenSubdiv6v3_6_03Sdc6Crease18decrementSharpnessEf.exit ]
  %10 = getelementptr inbounds float, ptr %2, i64 %indvars.iv91
  %11 = load float, ptr %10, align 4
  %12 = fcmp ugt float %11, 0.000000e+00
  br i1 %12, label %13, label %_ZNK10OpenSubdiv6v3_6_03Sdc6Crease18decrementSharpnessEf.exit

13:                                               ; preds = %.lr.ph71
  %14 = fcmp ult float %11, 1.000000e+01
  br i1 %14, label %15, label %_ZNK10OpenSubdiv6v3_6_03Sdc6Crease18decrementSharpnessEf.exit

15:                                               ; preds = %13
  %16 = fcmp ogt float %11, 1.000000e+00
  br i1 %16, label %17, label %_ZNK10OpenSubdiv6v3_6_03Sdc6Crease18decrementSharpnessEf.exit

17:                                               ; preds = %15
  %18 = fadd float %11, -1.000000e+00
  br label %_ZNK10OpenSubdiv6v3_6_03Sdc6Crease18decrementSharpnessEf.exit

_ZNK10OpenSubdiv6v3_6_03Sdc6Crease18decrementSharpnessEf.exit: ; preds = %.lr.ph71, %13, %15, %17
  %.0.i = phi float [ %18, %17 ], [ 0.000000e+00, %.lr.ph71 ], [ 1.000000e+01, %13 ], [ 0.000000e+00, %15 ]
  %19 = getelementptr inbounds float, ptr %3, i64 %indvars.iv91
  store float %.0.i, ptr %19, align 4
  %indvars.iv.next92 = add nuw nsw i64 %indvars.iv91, 1
  %exitcond95.not = icmp eq i64 %indvars.iv.next92, %wide.trip.count94
  br i1 %exitcond95.not, label %.loopexit, label %.lr.ph71, !llvm.loop !10

20:                                               ; preds = %4
  %21 = icmp eq i8 %6, 1
  br i1 %21, label %.lr.ph.preheader, label %.loopexit

.lr.ph.preheader:                                 ; preds = %20
  %wide.trip.count = zext nneg i32 %1 to i64
  br label %.lr.ph

.lr.ph:                                           ; preds = %.lr.ph.preheader, %.lr.ph
  %indvars.iv = phi i64 [ 0, %.lr.ph.preheader ], [ %indvars.iv.next, %.lr.ph ]
  %.04864 = phi float [ 0.000000e+00, %.lr.ph.preheader ], [ %.1, %.lr.ph ]
  %.04963 = phi i32 [ 0, %.lr.ph.preheader ], [ %.150, %.lr.ph ]
  %22 = getelementptr inbounds float, ptr %2, i64 %indvars.iv
  %23 = load float, ptr %22, align 4
  %24 = fcmp ogt float %23, 0.000000e+00
  %25 = fcmp olt float %23, 1.000000e+01
  %26 = and i1 %24, %25
  %.fr96 = freeze i1 %26
  %27 = fadd float %.04864, %23
  %28 = zext i1 %.fr96 to i32
  %.150 = add i32 %.04963, %28
  %.1 = select i1 %.fr96, float %27, float %.04864
  %indvars.iv.next = add nuw nsw i64 %indvars.iv, 1
  %exitcond.not = icmp eq i64 %indvars.iv.next, %wide.trip.count
  br i1 %exitcond.not, label %._crit_edge, label %.lr.ph, !llvm.loop !11

._crit_edge:                                      ; preds = %.lr.ph
  %29 = icmp eq i32 %.150, 0
  br i1 %29, label %.lr.ph69.preheader, label %.lr.ph67

.lr.ph67:                                         ; preds = %._crit_edge
  %30 = icmp eq i32 %.150, 1
  %31 = add nsw i32 %.150, -1
  %32 = sitofp i32 %31 to float
  %wide.trip.count84 = zext nneg i32 %1 to i64
  br i1 %30, label %.lr.ph67.split.us, label %.lr.ph67.split

.lr.ph67.split.us:                                ; preds = %.lr.ph67, %41
  %indvars.iv81 = phi i64 [ %indvars.iv.next82, %41 ], [ 0, %.lr.ph67 ]
  %33 = getelementptr inbounds float, ptr %2, i64 %indvars.iv81
  %34 = getelementptr inbounds float, ptr %3, i64 %indvars.iv81
  %35 = load float, ptr %33, align 4
  %36 = fcmp ugt float %35, 0.000000e+00
  br i1 %36, label %37, label %41

37:                                               ; preds = %.lr.ph67.split.us
  %38 = fcmp ult float %35, 1.000000e+01
  br i1 %38, label %_ZNK10OpenSubdiv6v3_6_03Sdc6Crease18decrementSharpnessEf.exit56.us, label %41

_ZNK10OpenSubdiv6v3_6_03Sdc6Crease18decrementSharpnessEf.exit56.us: ; preds = %37
  %39 = fcmp ogt float %35, 1.000000e+00
  %40 = fadd float %35, -1.000000e+00
  %.0.i55.us = select i1 %39, float %40, float 0.000000e+00
  br label %41

41:                                               ; preds = %37, %.lr.ph67.split.us, %_ZNK10OpenSubdiv6v3_6_03Sdc6Crease18decrementSharpnessEf.exit56.us
  %.0.i55.us.sink = phi float [ %.0.i55.us, %_ZNK10OpenSubdiv6v3_6_03Sdc6Crease18decrementSharpnessEf.exit56.us ], [ 0.000000e+00, %.lr.ph67.split.us ], [ 1.000000e+01, %37 ]
  store float %.0.i55.us.sink, ptr %34, align 4
  %indvars.iv.next82 = add nuw nsw i64 %indvars.iv81, 1
  %exitcond85.not = icmp eq i64 %indvars.iv.next82, %wide.trip.count84
  br i1 %exitcond85.not, label %.loopexit, label %.lr.ph67.split.us, !llvm.loop !12

.lr.ph69.preheader:                               ; preds = %._crit_edge
  %wide.trip.count89 = zext nneg i32 %1 to i64
  br label %.lr.ph69

.lr.ph69:                                         ; preds = %.lr.ph69.preheader, %.lr.ph69
  %indvars.iv86 = phi i64 [ 0, %.lr.ph69.preheader ], [ %indvars.iv.next87, %.lr.ph69 ]
  %42 = getelementptr inbounds float, ptr %2, i64 %indvars.iv86
  %43 = load float, ptr %42, align 4
  %44 = getelementptr inbounds float, ptr %3, i64 %indvars.iv86
  store float %43, ptr %44, align 4
  %indvars.iv.next87 = add nuw nsw i64 %indvars.iv86, 1
  %exitcond90.not = icmp eq i64 %indvars.iv.next87, %wide.trip.count89
  br i1 %exitcond90.not, label %.loopexit, label %.lr.ph69, !llvm.loop !13

.lr.ph67.split:                                   ; preds = %.lr.ph67, %58
  %indvars.iv76 = phi i64 [ %indvars.iv.next77, %58 ], [ 0, %.lr.ph67 ]
  %45 = getelementptr inbounds float, ptr %2, i64 %indvars.iv76
  %46 = getelementptr inbounds float, ptr %3, i64 %indvars.iv76
  %47 = load float, ptr %45, align 4
  %48 = fcmp ugt float %47, 0.000000e+00
  br i1 %48, label %49, label %58

49:                                               ; preds = %.lr.ph67.split
  %50 = fcmp ult float %47, 1.000000e+01
  br i1 %50, label %51, label %58

51:                                               ; preds = %49
  %52 = fsub float %.1, %47
  %53 = fdiv float %52, %32
  %54 = fmul float %53, 2.500000e-01
  %55 = tail call float @llvm.fmuladd.f32(float %47, float 7.500000e-01, float %54)
  %56 = fadd float %55, -1.000000e+00
  %57 = fcmp ugt float %56, 0.000000e+00
  br i1 %57, label %58, label %.sink.split

.sink.split:                                      ; preds = %51
  br label %58

58:                                               ; preds = %.lr.ph67.split, %49, %.sink.split, %51
  %storemerge = phi float [ %56, %51 ], [ 0.000000e+00, %.lr.ph67.split ], [ 1.000000e+01, %49 ], [ 0.000000e+00, %.sink.split ]
  store float %storemerge, ptr %46, align 4
  %indvars.iv.next77 = add nuw nsw i64 %indvars.iv76, 1
  %exitcond80.not = icmp eq i64 %indvars.iv.next77, %wide.trip.count84
  br i1 %exitcond80.not, label %.loopexit, label %.lr.ph67.split, !llvm.loop !12

.loopexit:                                        ; preds = %58, %41, %.lr.ph69, %_ZNK10OpenSubdiv6v3_6_03Sdc6Crease18decrementSharpnessEf.exit, %.preheader, %20
  ret void
}